target datalayout = "e-m:e-p270:32:32-p271:32:32-p272:64:64-i64:64-i128:128-f80:128-n8:16:32:64-S128"
target triple = "x86_64-pc-linux-gnu"

%struct._object = type { %union.anon, ptr }
%union.anon = type { i64 }
%struct._PyJumpTargetLabel = type { i32 }
%struct.instruction_sequence = type { %struct._object, ptr, i32, i32, i32, ptr, i32, ptr }

; Function Attrs: nounwind uwtable
define hidden i32 @_PyInstructionSequence_NewLabel(ptr noundef %0) #0 {
  %2 = alloca %struct._PyJumpTargetLabel, align 4
  %3 = alloca ptr, align 8
  store ptr %0, ptr %3, align 8, !tbaa !4
  %4 = getelementptr inbounds nuw %struct._PyJumpTargetLabel, ptr %2, i32 0, i32 0
  %5 = load ptr, ptr %3, align 8, !tbaa !4
  %6 = getelementptr inbounds nuw %struct.instruction_sequence, ptr %5, i32 0, i32 4
  %7 = load i32, ptr %6, align 8, !tbaa !9
  %8 = add i32 %7, 1
  store i32 %8, ptr %6, align 8, !tbaa !9
  store i32 %8, ptr %4, align 4, !tbaa !16
  %9 = getelementptr inbounds nuw %struct._PyJumpTargetLabel, ptr %2, i32 0, i32 0
  %10 = load i32, ptr %9, align 4
  ret i32 %10
}

; Function Attrs: nounwind uwtable
define internal i32 @InstructionSequenceType_new_label_impl(ptr noundef %0) #0 {
  %2 = alloca ptr, align 8
  %3 = alloca %struct._PyJumpTargetLabel, align 4
  store ptr %0, ptr %2, align 8, !tbaa !4
  call void @llvm.lifetime.start.p0(i64 4, ptr %3) #6
  %4 = load ptr, ptr %2, align 8, !tbaa !4
  %5 = call i32 @_PyInstructionSequence_NewLabel(ptr noundef %4)
  %6 = getelementptr inbounds nuw %struct._PyJumpTargetLabel, ptr %3, i32 0, i32 0
  store i32 %5, ptr %6, align 4
  %7 = getelementptr inbounds nuw %struct._PyJumpTargetLabel, ptr %3, i32 0, i32 0
  %8 = load i32, ptr %7, align 4, !tbaa !16
  call void @llvm.lifetime.end.p0(i64 4, ptr %3) #6
  ret i32 %8
}

; Function Attrs: nounwind uwtable
define internal ptr @InstructionSequenceType_new_label(ptr noundef %0, ptr noundef %1) #0 {
  %3 = alloca ptr, align 8
  %4 = alloca ptr, align 8
  %5 = alloca ptr, align 8
  %6 = alloca i32, align 4
  store ptr %0, ptr %3, align 8, !tbaa !41
  store ptr %1, ptr %4, align 8, !tbaa !41
  call void @llvm.lifetime.start.p0(i64 8, ptr %5) #6
  store ptr null, ptr %5, align 8, !tbaa !41
  call void @llvm.lifetime.start.p0(i64 4, ptr %6) #6
  %7 = load ptr, ptr %3, align 8, !tbaa !41
  %8 = call i32 @InstructionSequenceType_new_label_impl(ptr noundef %7)
  store i32 %8, ptr %6, align 4, !tbaa !18
  %9 = load i32, ptr %6, align 4, !tbaa !18
  %10 = icmp eq i32 %9, -1
  br i1 %10, label %11, label %15

11:                                               ; preds = %2
  %12 = call ptr @PyErr_Occurred()
  %13 = icmp ne ptr %12, null
  br i1 %13, label %14, label %15

14:                                               ; preds = %11
  br label %19

15:                                               ; preds = %11, %2
  %16 = load i32, ptr %6, align 4, !tbaa !18
  %17 = sext i32 %16 to i64
  %18 = call ptr @PyLong_FromLong(i64 noundef %17)
  store ptr %18, ptr %5, align 8, !tbaa !41
  br label %19

19:                                               ; preds = %15, %14
  %20 = load ptr, ptr %5, align 8, !tbaa !41
  call void @llvm.lifetime.end.p0(i64 4, ptr %6) #6
  call void @llvm.lifetime.end.p0(i64 8, ptr %5) #6
  ret ptr %20
}