; Function Attrs: nounwind uwtable
define internal ptr @InstructionSequenceType_new_label(ptr noundef captures(none) %0, ptr readnone captures(none) %1) #1 {
  %3 = getelementptr inbounds nuw i8, ptr %0, i64 32
  %4 = load i32, ptr %3, align 8, !tbaa !4
  %5 = add i32 %4, 1
  store i32 %5, ptr %3, align 8, !tbaa !4
  %6 = icmp eq i32 %5, -1
  br i1 %6, label %7, label %9

7:                                                ; preds = %2
  %8 = tail call ptr @PyErr_Occurred() #6
  %.not = icmp eq ptr %8, null
  br i1 %.not, label %9, label %12

9:                                                ; preds = %7, %2
  %10 = sext i32 %5 to i64
  %11 = tail call ptr @PyLong_FromLong(i64 noundef %10) #6
  br label %12

12:                                               ; preds = %7, %9
  %.0 = phi ptr [ null, %7 ], [ %11, %9 ]
  ret ptr %.0
}